; Function Attrs: mustprogress uwtable
define internal void @"_ZN9grpc_core20arena_promise_detail17AllocatedCallableISt10unique_ptrI19grpc_metadata_batchNS_5Arena13PooledDeleterEEZNS_23LegacyChannelIdleFilter15MakeCallPromiseENS_8CallArgsESt8functionIFNS_12ArenaPromiseIS6_EES8_EEE3$_0E7DestroyEPNS0_7ArgTypeE"(ptr nocapture noundef readonly %arg) #3 align 2 personality ptr @__gxx_personality_v0 {
entry:
  %0 = load ptr, ptr %arg, align 8
  %1 = getelementptr inbounds i8, ptr %0, i64 16
  %2 = load ptr, ptr %1, align 16
  %destroy.i.i.i = getelementptr inbounds i8, ptr %2, i64 8
  %3 = load ptr, ptr %destroy.i.i.i, align 8
  %arg.i.i.i = getelementptr inbounds i8, ptr %0, i64 32
  invoke void %3(ptr noundef nonnull %arg.i.i.i)
          to label %_ZN9grpc_core12ArenaPromiseISt10unique_ptrI19grpc_metadata_batchNS_5Arena13PooledDeleterEEED2Ev.exit.i.i unwind label %terminate.lpad.i.i.i

terminate.lpad.i.i.i:                             ; preds = %entry
  %4 = landingpad { ptr, i32 }
          catch ptr null
  %5 = extractvalue { ptr, i32 } %4, 0
  tail call void @__clang_call_terminate(ptr %5) #25
  unreachable

_ZN9grpc_core12ArenaPromiseISt10unique_ptrI19grpc_metadata_batchNS_5Arena13PooledDeleterEEED2Ev.exit.i.i: ; preds = %entry
  %6 = load ptr, ptr %0, align 8
  %cmp.not.i.i.i = icmp eq ptr %6, null
  br i1 %cmp.not.i.i.i, label %"_ZN9grpc_core8DestructIZNS_23LegacyChannelIdleFilter15MakeCallPromiseENS_8CallArgsESt8functionIFNS_12ArenaPromiseISt10unique_ptrI19grpc_metadata_batchNS_5Arena13PooledDeleterEEEES2_EEE3$_0EEvPT_.exit", label %if.then.i.i.i

if.then.i.i.i:                                    ; preds = %_ZN9grpc_core12ArenaPromiseISt10unique_ptrI19grpc_metadata_batchNS_5Arena13PooledDeleterEEED2Ev.exit.i.i
  %idle_filter_state_.i.i.i.i.i = getelementptr inbounds i8, ptr %6, i64 40
  %7 = load ptr, ptr %idle_filter_state_.i.i.i.i.i, align 8
  %call2.i.i3.i.i.i = invoke noundef zeroext i1 @_ZN9grpc_core15IdleFilterState17DecreaseCallCountEv(ptr noundef nonnull align 8 dereferenceable(8) %7)
          to label %call2.i.i.noexc.i.i.i unwind label %terminate.lpad.i1.i.i

call2.i.i.noexc.i.i.i:                            ; preds = %if.then.i.i.i
  br i1 %call2.i.i3.i.i.i, label %if.then.i.i.i.i.i, label %"_ZN9grpc_core8DestructIZNS_23LegacyChannelIdleFilter15MakeCallPromiseENS_8CallArgsESt8functionIFNS_12ArenaPromiseISt10unique_ptrI19grpc_metadata_batchNS_5Arena13PooledDeleterEEEES2_EEE3$_0EEvPT_.exit"

if.then.i.i.i.i.i:                                ; preds = %call2.i.i.noexc.i.i.i
  invoke void @_ZN9grpc_core23LegacyChannelIdleFilter14StartIdleTimerEv(ptr noundef nonnull align 8 dereferenceable(64) %6)
          to label %"_ZN9grpc_core8DestructIZNS_23LegacyChannelIdleFilter15MakeCallPromiseENS_8CallArgsESt8functionIFNS_12ArenaPromiseISt10unique_ptrI19grpc_metadata_batchNS_5Arena13PooledDeleterEEEES2_EEE3$_0EEvPT_.exit" unwind label %terminate.lpad.i1.i.i

terminate.lpad.i1.i.i:                            ; preds = %if.then.i.i.i.i.i, %if.then.i.i.i
  %8 = landingpad { ptr, i32 }
          catch ptr null
  %9 = extractvalue { ptr, i32 } %8, 0
  tail call void @__clang_call_terminate(ptr %9) #25
  unreachable

"_ZN9grpc_core8DestructIZNS_23LegacyChannelIdleFilter15MakeCallPromiseENS_8CallArgsESt8functionIFNS_12ArenaPromiseISt10unique_ptrI19grpc_metadata_batchNS_5Arena13PooledDeleterEEEES2_EEE3$_0EEvPT_.exit": ; preds = %_ZN9grpc_core12ArenaPromiseISt10unique_ptrI19grpc_metadata_batchNS_5Arena13PooledDeleterEEED2Ev.exit.i.i, %call2.i.i.noexc.i.i.i, %if.then.i.i.i.i.i
  store ptr null, ptr %0, align 8
  ret void
}